; Function Attrs: nounwind uwtable
define void @drand_generate(ptr noundef writeonly captures(none) %0, i32 noundef %1) local_unnamed_addr #0 {
  %3 = icmp sgt i32 %1, 0
  br i1 %3, label %.lr.ph.preheader, label %._crit_edge

.lr.ph.preheader:                                 ; preds = %2
  %wide.trip.count = zext nneg i32 %1 to i64
  br label %.lr.ph

.lr.ph:                                           ; preds = %.lr.ph.preheader, %.lr.ph
  %indvars.iv = phi i64 [ 0, %.lr.ph.preheader ], [ %indvars.iv.next, %.lr.ph ]
  %4 = tail call i32 @rand() #6
  %5 = sitofp i32 %4 to double
  %6 = fdiv double %5, 0x41DFFFFFFFC00000
  %7 = getelementptr inbounds nuw double, ptr %0, i64 %indvars.iv
  store double %6, ptr %7, align 8, !tbaa !9
  %indvars.iv.next = add nuw nsw i64 %indvars.iv, 1
  %exitcond.not = icmp eq i64 %indvars.iv.next, %wide.trip.count
  br i1 %exitcond.not, label %._crit_edge, label %.lr.ph, !llvm.loop !11

._crit_edge:                                      ; preds = %.lr.ph, %2
  ret void
}